; Function Attrs: nounwind uwtable
define void @ossl_quic_channel_free(ptr noundef %0) local_unnamed_addr #0 {
  %2 = icmp eq ptr %0, null
  br i1 %2, label %4, label %3

3:                                                ; preds = %1
  tail call fastcc void @ch_cleanup(ptr noundef nonnull %0)
  tail call void @CRYPTO_free(ptr noundef nonnull %0, ptr noundef nonnull @.str, i32 noundef 461) #15
  br label %4

4:                                                ; preds = %1, %3
  ret void
}